target datalayout = "e-m:e-p270:32:32-p271:32:32-p272:64:64-i64:64-i128:128-f80:128-n8:16:32:64-S128"
target triple = "x86_64-pc-linux-gnu"

%struct.__loadu_si128 = type { <2 x i64> }
%struct.__storeu_si128 = type { <2 x i64> }

; Function Attrs: alwaysinline nounwind uwtable
define internal <2 x i64> @_mm_set_epi32(i32 noundef %0, i32 noundef %1, i32 noundef %2, i32 noundef %3) #3 {
  %5 = alloca i32, align 4
  %6 = alloca i32, align 4
  %7 = alloca i32, align 4
  %8 = alloca i32, align 4
  %9 = alloca <4 x i32>, align 16
  store i32 %0, ptr %5, align 4, !tbaa !9
  store i32 %1, ptr %6, align 4, !tbaa !9
  store i32 %2, ptr %7, align 4, !tbaa !9
  store i32 %3, ptr %8, align 4, !tbaa !9
  %10 = load i32, ptr %8, align 4, !tbaa !9
  %11 = insertelement <4 x i32> poison, i32 %10, i32 0
  %12 = load i32, ptr %7, align 4, !tbaa !9
  %13 = insertelement <4 x i32> %11, i32 %12, i32 1
  %14 = load i32, ptr %6, align 4, !tbaa !9
  %15 = insertelement <4 x i32> %13, i32 %14, i32 2
  %16 = load i32, ptr %5, align 4, !tbaa !9
  %17 = insertelement <4 x i32> %15, i32 %16, i32 3
  store <4 x i32> %17, ptr %9, align 16, !tbaa !11
  %18 = load <4 x i32>, ptr %9, align 16, !tbaa !11
  %19 = bitcast <4 x i32> %18 to <2 x i64>
  ret <2 x i64> %19
}

; Function Attrs: alwaysinline nounwind uwtable
define internal void @_mm_storeu_si128(ptr noundef %0, <2 x i64> noundef %1) #3 {
  %3 = alloca ptr, align 8
  %4 = alloca <2 x i64>, align 16
  store ptr %0, ptr %3, align 8, !tbaa !3
  store <2 x i64> %1, ptr %4, align 16, !tbaa !11
  %5 = load <2 x i64>, ptr %4, align 16, !tbaa !11
  %6 = load ptr, ptr %3, align 8, !tbaa !3
  %7 = getelementptr inbounds nuw %struct.__storeu_si128, ptr %6, i32 0, i32 0
  store <2 x i64> %5, ptr %7, align 1, !tbaa !11
  ret void
}

; Function Attrs: alwaysinline nounwind uwtable
define internal <2 x i64> @_mm_packs_epi32(<2 x i64> noundef %0, <2 x i64> noundef %1) #3 {
  %3 = alloca <2 x i64>, align 16
  %4 = alloca <2 x i64>, align 16
  store <2 x i64> %0, ptr %3, align 16, !tbaa !11
  store <2 x i64> %1, ptr %4, align 16, !tbaa !11
  %5 = load <2 x i64>, ptr %3, align 16, !tbaa !11
  %6 = bitcast <2 x i64> %5 to <4 x i32>
  %7 = load <2 x i64>, ptr %4, align 16, !tbaa !11
  %8 = bitcast <2 x i64> %7 to <4 x i32>
  %9 = call <8 x i16> @llvm.x86.sse2.packssdw.128(<4 x i32> %6, <4 x i32> %8)
  %10 = bitcast <8 x i16> %9 to <2 x i64>
  ret <2 x i64> %10
}

; Function Attrs: alwaysinline nounwind uwtable
define internal <2 x i64> @_mm_sub_epi8(<2 x i64> noundef %0, <2 x i64> noundef %1) #3 {
  %3 = alloca <2 x i64>, align 16
  %4 = alloca <2 x i64>, align 16
  store <2 x i64> %0, ptr %3, align 16, !tbaa !11
  store <2 x i64> %1, ptr %4, align 16, !tbaa !11
  %5 = load <2 x i64>, ptr %3, align 16, !tbaa !11
  %6 = bitcast <2 x i64> %5 to <16 x i8>
  %7 = load <2 x i64>, ptr %4, align 16, !tbaa !11
  %8 = bitcast <2 x i64> %7 to <16 x i8>
  %9 = sub <16 x i8> %6, %8
  %10 = bitcast <16 x i8> %9 to <2 x i64>
  ret <2 x i64> %10
}

; Function Attrs: alwaysinline nounwind uwtable
define internal <2 x i64> @_mm_mulhi_epi16(<2 x i64> noundef %0, <2 x i64> noundef %1) #3 {
  %3 = alloca <2 x i64>, align 16
  %4 = alloca <2 x i64>, align 16
  store <2 x i64> %0, ptr %3, align 16, !tbaa !11
  store <2 x i64> %1, ptr %4, align 16, !tbaa !11
  %5 = load <2 x i64>, ptr %3, align 16, !tbaa !11
  %6 = bitcast <2 x i64> %5 to <8 x i16>
  %7 = load <2 x i64>, ptr %4, align 16, !tbaa !11
  %8 = bitcast <2 x i64> %7 to <8 x i16>
  %9 = call <8 x i16> @llvm.x86.sse2.pmulh.w(<8 x i16> %6, <8 x i16> %8)
  %10 = bitcast <8 x i16> %9 to <2 x i64>
  ret <2 x i64> %10
}

; Function Attrs: alwaysinline nounwind uwtable
define internal <2 x i64> @_mm_srli_epi32(<2 x i64> noundef %0, i32 noundef %1) #3 {
  %3 = alloca <2 x i64>, align 16
  %4 = alloca i32, align 4
  store <2 x i64> %0, ptr %3, align 16, !tbaa !11
  store i32 %1, ptr %4, align 4, !tbaa !9
  %5 = load <2 x i64>, ptr %3, align 16, !tbaa !11
  %6 = bitcast <2 x i64> %5 to <4 x i32>
  %7 = load i32, ptr %4, align 4, !tbaa !9
  %8 = call <4 x i32> @llvm.x86.sse2.psrli.d(<4 x i32> %6, i32 %7)
  %9 = bitcast <4 x i32> %8 to <2 x i64>
  ret <2 x i64> %9
}

; Function Attrs: alwaysinline nounwind uwtable
define internal <2 x i64> @_mm_and_si128(<2 x i64> noundef %0, <2 x i64> noundef %1) #3 {
  %3 = alloca <2 x i64>, align 16
  %4 = alloca <2 x i64>, align 16
  store <2 x i64> %0, ptr %3, align 16, !tbaa !11
  store <2 x i64> %1, ptr %4, align 16, !tbaa !11
  %5 = load <2 x i64>, ptr %3, align 16, !tbaa !11
  %6 = load <2 x i64>, ptr %4, align 16, !tbaa !11
  %7 = and <2 x i64> %5, %6
  ret <2 x i64> %7
}

; Function Attrs: alwaysinline nounwind uwtable
define internal <2 x i64> @_mm_loadu_si128(ptr noundef %0) #3 {
  %2 = alloca ptr, align 8
  store ptr %0, ptr %2, align 8, !tbaa !3
  %3 = load ptr, ptr %2, align 8, !tbaa !3
  %4 = getelementptr inbounds nuw %struct.__loadu_si128, ptr %3, i32 0, i32 0
  %5 = load <2 x i64>, ptr %4, align 1, !tbaa !11
  ret <2 x i64> %5
}

; Function Attrs: alwaysinline nounwind uwtable
define internal <2 x i64> @_mm_set1_epi32(i32 noundef %0) #3 {
  %2 = alloca i32, align 4
  store i32 %0, ptr %2, align 4, !tbaa !9
  %3 = load i32, ptr %2, align 4, !tbaa !9
  %4 = load i32, ptr %2, align 4, !tbaa !9
  %5 = load i32, ptr %2, align 4, !tbaa !9
  %6 = load i32, ptr %2, align 4, !tbaa !9
  %7 = call <2 x i64> @_mm_set_epi32(i32 noundef %3, i32 noundef %4, i32 noundef %5, i32 noundef %6)
  ret <2 x i64> %7
}

; Function Attrs: nounwind uwtable
define internal void @CollectColorRedTransforms_SSE2(ptr noalias noundef %0, i32 noundef %1, i32 noundef %2, i32 noundef %3, i32 noundef %4, ptr noundef %5) #1 {
  %7 = alloca ptr, align 8
  %8 = alloca i32, align 4
  %9 = alloca i32, align 4
  %10 = alloca i32, align 4
  %11 = alloca i32, align 4
  %12 = alloca ptr, align 8
  %13 = alloca <2 x i64>, align 16
  %14 = alloca <2 x i64>, align 16
  %15 = alloca <2 x i64>, align 16
  %16 = alloca i32, align 4
  %17 = alloca ptr, align 8
  %18 = alloca i32, align 4
  %19 = alloca i32, align 4
  %20 = alloca [8 x i16], align 16
  %21 = alloca <2 x i64>, align 16
  %22 = alloca <2 x i64>, align 16
  %23 = alloca <2 x i64>, align 16
  %24 = alloca <2 x i64>, align 16
  %25 = alloca <2 x i64>, align 16
  %26 = alloca <2 x i64>, align 16
  %27 = alloca <2 x i64>, align 16
  %28 = alloca <2 x i64>, align 16
  %29 = alloca <2 x i64>, align 16
  %30 = alloca <2 x i64>, align 16
  %31 = alloca <2 x i64>, align 16
  %32 = alloca <2 x i64>, align 16
  %33 = alloca <2 x i64>, align 16
  %34 = alloca i32, align 4
  store ptr %0, ptr %7, align 8, !tbaa !7
  store i32 %1, ptr %8, align 4, !tbaa !9
  store i32 %2, ptr %9, align 4, !tbaa !9
  store i32 %3, ptr %10, align 4, !tbaa !9
  store i32 %4, ptr %11, align 4, !tbaa !9
  store ptr %5, ptr %12, align 8, !tbaa !7
  call void @llvm.lifetime.start.p0(i64 16, ptr %13) #9
  %35 = load i32, ptr %11, align 4, !tbaa !9
  %36 = trunc i32 %35 to i16
  %37 = zext i16 %36 to i32
  %38 = shl i32 %37, 8
  %39 = trunc i32 %38 to i16
  %40 = sext i16 %39 to i32
  %41 = ashr i32 %40, 5
  %42 = and i32 %41, 65535
  %43 = or i32 0, %42
  %44 = call <2 x i64> @_mm_set1_epi32(i32 noundef %43)
  store <2 x i64> %44, ptr %13, align 16, !tbaa !11
  call void @llvm.lifetime.start.p0(i64 16, ptr %14) #9
  %45 = call <2 x i64> @_mm_set1_epi32(i32 noundef 65280)
  store <2 x i64> %45, ptr %14, align 16, !tbaa !11
  call void @llvm.lifetime.start.p0(i64 16, ptr %15) #9
  %46 = call <2 x i64> @_mm_set1_epi32(i32 noundef 255)
  store <2 x i64> %46, ptr %15, align 16, !tbaa !11
  call void @llvm.lifetime.start.p0(i64 4, ptr %16) #9
  store i32 0, ptr %16, align 4, !tbaa !9
  br label %47

47:                                               ; preds = %130, %6
  %48 = load i32, ptr %16, align 4, !tbaa !9
  %49 = load i32, ptr %10, align 4, !tbaa !9
  %50 = icmp slt i32 %48, %49
  br i1 %50, label %51, label %133

51:                                               ; preds = %47
  call void @llvm.lifetime.start.p0(i64 8, ptr %17) #9
  %52 = load ptr, ptr %7, align 8, !tbaa !7
  %53 = load i32, ptr %16, align 4, !tbaa !9
  %54 = load i32, ptr %8, align 4, !tbaa !9
  %55 = mul nsw i32 %53, %54
  %56 = sext i32 %55 to i64
  %57 = getelementptr inbounds i32, ptr %52, i64 %56
  store ptr %57, ptr %17, align 8, !tbaa !7
  call void @llvm.lifetime.start.p0(i64 4, ptr %18) #9
  call void @llvm.lifetime.start.p0(i64 4, ptr %19) #9
  store i32 0, ptr %19, align 4, !tbaa !9
  br label %58

58:                                               ; preds = %126, %51
  %59 = load i32, ptr %19, align 4, !tbaa !9
  %60 = add nsw i32 %59, 8
  %61 = load i32, ptr %9, align 4, !tbaa !9
  %62 = icmp sle i32 %60, %61
  br i1 %62, label %63, label %129

63:                                               ; preds = %58
  call void @llvm.lifetime.start.p0(i64 16, ptr %20) #9
  call void @llvm.lifetime.start.p0(i64 16, ptr %21) #9
  %64 = load ptr, ptr %17, align 8, !tbaa !7
  %65 = load i32, ptr %19, align 4, !tbaa !9
  %66 = add nsw i32 %65, 0
  %67 = sext i32 %66 to i64
  %68 = getelementptr inbounds i32, ptr %64, i64 %67
  %69 = call <2 x i64> @_mm_loadu_si128(ptr noundef %68)
  store <2 x i64> %69, ptr %21, align 16, !tbaa !11
  call void @llvm.lifetime.start.p0(i64 16, ptr %22) #9
  %70 = load ptr, ptr %17, align 8, !tbaa !7
  %71 = load i32, ptr %19, align 4, !tbaa !9
  %72 = add nsw i32 %71, 4
  %73 = sext i32 %72 to i64
  %74 = getelementptr inbounds i32, ptr %70, i64 %73
  %75 = call <2 x i64> @_mm_loadu_si128(ptr noundef %74)
  store <2 x i64> %75, ptr %22, align 16, !tbaa !11
  call void @llvm.lifetime.start.p0(i64 16, ptr %23) #9
  %76 = load <2 x i64>, ptr %21, align 16, !tbaa !11
  %77 = load <2 x i64>, ptr %14, align 16, !tbaa !11
  %78 = call <2 x i64> @_mm_and_si128(<2 x i64> noundef %76, <2 x i64> noundef %77)
  store <2 x i64> %78, ptr %23, align 16, !tbaa !11
  call void @llvm.lifetime.start.p0(i64 16, ptr %24) #9
  %79 = load <2 x i64>, ptr %22, align 16, !tbaa !11
  %80 = load <2 x i64>, ptr %14, align 16, !tbaa !11
  %81 = call <2 x i64> @_mm_and_si128(<2 x i64> noundef %79, <2 x i64> noundef %80)
  store <2 x i64> %81, ptr %24, align 16, !tbaa !11
  call void @llvm.lifetime.start.p0(i64 16, ptr %25) #9
  %82 = load <2 x i64>, ptr %21, align 16, !tbaa !11
  %83 = call <2 x i64> @_mm_srli_epi32(<2 x i64> noundef %82, i32 noundef 16)
  store <2 x i64> %83, ptr %25, align 16, !tbaa !11
  call void @llvm.lifetime.start.p0(i64 16, ptr %26) #9
  %84 = load <2 x i64>, ptr %22, align 16, !tbaa !11
  %85 = call <2 x i64> @_mm_srli_epi32(<2 x i64> noundef %84, i32 noundef 16)
  store <2 x i64> %85, ptr %26, align 16, !tbaa !11
  call void @llvm.lifetime.start.p0(i64 16, ptr %27) #9
  %86 = load <2 x i64>, ptr %23, align 16, !tbaa !11
  %87 = load <2 x i64>, ptr %13, align 16, !tbaa !11
  %88 = call <2 x i64> @_mm_mulhi_epi16(<2 x i64> noundef %86, <2 x i64> noundef %87)
  store <2 x i64> %88, ptr %27, align 16, !tbaa !11
  call void @llvm.lifetime.start.p0(i64 16, ptr %28) #9
  %89 = load <2 x i64>, ptr %24, align 16, !tbaa !11
  %90 = load <2 x i64>, ptr %13, align 16, !tbaa !11
  %91 = call <2 x i64> @_mm_mulhi_epi16(<2 x i64> noundef %89, <2 x i64> noundef %90)
  store <2 x i64> %91, ptr %28, align 16, !tbaa !11
  call void @llvm.lifetime.start.p0(i64 16, ptr %29) #9
  %92 = load <2 x i64>, ptr %25, align 16, !tbaa !11
  %93 = load <2 x i64>, ptr %27, align 16, !tbaa !11
  %94 = call <2 x i64> @_mm_sub_epi8(<2 x i64> noundef %92, <2 x i64> noundef %93)
  store <2 x i64> %94, ptr %29, align 16, !tbaa !11
  call void @llvm.lifetime.start.p0(i64 16, ptr %30) #9
  %95 = load <2 x i64>, ptr %26, align 16, !tbaa !11
  %96 = load <2 x i64>, ptr %28, align 16, !tbaa !11
  %97 = call <2 x i64> @_mm_sub_epi8(<2 x i64> noundef %95, <2 x i64> noundef %96)
  store <2 x i64> %97, ptr %30, align 16, !tbaa !11
  call void @llvm.lifetime.start.p0(i64 16, ptr %31) #9
  %98 = load <2 x i64>, ptr %29, align 16, !tbaa !11
  %99 = load <2 x i64>, ptr %15, align 16, !tbaa !11
  %100 = call <2 x i64> @_mm_and_si128(<2 x i64> noundef %98, <2 x i64> noundef %99)
  store <2 x i64> %100, ptr %31, align 16, !tbaa !11
  call void @llvm.lifetime.start.p0(i64 16, ptr %32) #9
  %101 = load <2 x i64>, ptr %30, align 16, !tbaa !11
  %102 = load <2 x i64>, ptr %15, align 16, !tbaa !11
  %103 = call <2 x i64> @_mm_and_si128(<2 x i64> noundef %101, <2 x i64> noundef %102)
  store <2 x i64> %103, ptr %32, align 16, !tbaa !11
  call void @llvm.lifetime.start.p0(i64 16, ptr %33) #9
  %104 = load <2 x i64>, ptr %31, align 16, !tbaa !11
  %105 = load <2 x i64>, ptr %32, align 16, !tbaa !11
  %106 = call <2 x i64> @_mm_packs_epi32(<2 x i64> noundef %104, <2 x i64> noundef %105)
  store <2 x i64> %106, ptr %33, align 16, !tbaa !11
  %107 = getelementptr inbounds [8 x i16], ptr %20, i64 0, i64 0
  %108 = load <2 x i64>, ptr %33, align 16, !tbaa !11
  call void @_mm_storeu_si128(ptr noundef %107, <2 x i64> noundef %108)
  store i32 0, ptr %18, align 4, !tbaa !9
  br label %109

109:                                              ; preds = %122, %63
  %110 = load i32, ptr %18, align 4, !tbaa !9
  %111 = icmp slt i32 %110, 8
  br i1 %111, label %112, label %125

112:                                              ; preds = %109
  %113 = load ptr, ptr %12, align 8, !tbaa !7
  %114 = load i32, ptr %18, align 4, !tbaa !9
  %115 = sext i32 %114 to i64
  %116 = getelementptr inbounds [8 x i16], ptr %20, i64 0, i64 %115
  %117 = load i16, ptr %116, align 2, !tbaa !19
  %118 = zext i16 %117 to i64
  %119 = getelementptr inbounds nuw i32, ptr %113, i64 %118
  %120 = load i32, ptr %119, align 4, !tbaa !9
  %121 = add i32 %120, 1
  store i32 %121, ptr %119, align 4, !tbaa !9
  br label %122

122:                                              ; preds = %112
  %123 = load i32, ptr %18, align 4, !tbaa !9
  %124 = add nsw i32 %123, 1
  store i32 %124, ptr %18, align 4, !tbaa !9
  br label %109, !llvm.loop !24

125:                                              ; preds = %109
  call void @llvm.lifetime.end.p0(i64 16, ptr %33) #9
  call void @llvm.lifetime.end.p0(i64 16, ptr %32) #9
  call void @llvm.lifetime.end.p0(i64 16, ptr %31) #9
  call void @llvm.lifetime.end.p0(i64 16, ptr %30) #9
  call void @llvm.lifetime.end.p0(i64 16, ptr %29) #9
  call void @llvm.lifetime.end.p0(i64 16, ptr %28) #9
  call void @llvm.lifetime.end.p0(i64 16, ptr %27) #9
  call void @llvm.lifetime.end.p0(i64 16, ptr %26) #9
  call void @llvm.lifetime.end.p0(i64 16, ptr %25) #9
  call void @llvm.lifetime.end.p0(i64 16, ptr %24) #9
  call void @llvm.lifetime.end.p0(i64 16, ptr %23) #9
  call void @llvm.lifetime.end.p0(i64 16, ptr %22) #9
  call void @llvm.lifetime.end.p0(i64 16, ptr %21) #9
  call void @llvm.lifetime.end.p0(i64 16, ptr %20) #9
  br label %126

126:                                              ; preds = %125
  %127 = load i32, ptr %19, align 4, !tbaa !9
  %128 = add nsw i32 %127, 8
  store i32 %128, ptr %19, align 4, !tbaa !9
  br label %58, !llvm.loop !25

129:                                              ; preds = %58
  call void @llvm.lifetime.end.p0(i64 4, ptr %19) #9
  call void @llvm.lifetime.end.p0(i64 4, ptr %18) #9
  call void @llvm.lifetime.end.p0(i64 8, ptr %17) #9
  br label %130

130:                                              ; preds = %129
  %131 = load i32, ptr %16, align 4, !tbaa !9
  %132 = add nsw i32 %131, 1
  store i32 %132, ptr %16, align 4, !tbaa !9
  br label %47, !llvm.loop !26

133:                                              ; preds = %47
  call void @llvm.lifetime.start.p0(i64 4, ptr %34) #9
  %134 = load i32, ptr %9, align 4, !tbaa !9
  %135 = and i32 %134, 7
  store i32 %135, ptr %34, align 4, !tbaa !9
  %136 = load i32, ptr %34, align 4, !tbaa !9
  %137 = icmp sgt i32 %136, 0
  br i1 %137, label %138, label %152

138:                                              ; preds = %133
  %139 = load ptr, ptr %7, align 8, !tbaa !7
  %140 = load i32, ptr %9, align 4, !tbaa !9
  %141 = sext i32 %140 to i64
  %142 = getelementptr inbounds i32, ptr %139, i64 %141
  %143 = load i32, ptr %34, align 4, !tbaa !9
  %144 = sext i32 %143 to i64
  %145 = sub i64 0, %144
  %146 = getelementptr inbounds i32, ptr %142, i64 %145
  %147 = load i32, ptr %8, align 4, !tbaa !9
  %148 = load i32, ptr %34, align 4, !tbaa !9
  %149 = load i32, ptr %10, align 4, !tbaa !9
  %150 = load i32, ptr %11, align 4, !tbaa !9
  %151 = load ptr, ptr %12, align 8, !tbaa !7
  call void @VP8LCollectColorRedTransforms_C(ptr noundef %146, i32 noundef %147, i32 noundef %148, i32 noundef %149, i32 noundef %150, ptr noundef %151)
  br label %152

152:                                              ; preds = %138, %133
  call void @llvm.lifetime.end.p0(i64 4, ptr %34) #9
  call void @llvm.lifetime.end.p0(i64 4, ptr %16) #9
  call void @llvm.lifetime.end.p0(i64 16, ptr %15) #9
  call void @llvm.lifetime.end.p0(i64 16, ptr %14) #9
  call void @llvm.lifetime.end.p0(i64 16, ptr %13) #9
  ret void
}