; Function Attrs: nounwind uwtable
define internal void @CollectColorRedTransforms_SSE2(ptr noalias noundef %0, i32 noundef %1, i32 noundef %2, i32 noundef %3, i32 noundef %4, ptr noundef %5) #1 {
  %7 = alloca [8 x i16], align 16
  %8 = icmp sgt i32 %3, 0
  br i1 %8, label %.lr.ph59, label %._crit_edge60

.lr.ph59:                                         ; preds = %6
  %.tr = trunc i32 %4 to i16
  %9 = shl i16 %.tr, 8
  %10 = ashr exact i16 %9, 5
  %11 = zext i16 %10 to i32
  %12 = insertelement <4 x i32> poison, i32 %11, i64 0
  %13 = shufflevector <4 x i32> %12, <4 x i32> poison, <4 x i32> zeroinitializer
  %.not5355 = icmp slt i32 %2, 8
  %14 = bitcast <4 x i32> %13 to <8 x i16>
  br i1 %.not5355, label %._crit_edge60, label %.lr.ph.preheader

.lr.ph.preheader:                                 ; preds = %.lr.ph59
  %15 = zext nneg i32 %2 to i64
  %16 = sext i32 %1 to i64
  %wide.trip.count = zext nneg i32 %3 to i64
  br label %.lr.ph

.lr.ph:                                           ; preds = %.lr.ph.preheader, %._crit_edge
  %indvars.iv70 = phi i64 [ 0, %.lr.ph.preheader ], [ %indvars.iv.next71, %._crit_edge ]
  %17 = mul nsw i64 %indvars.iv70, %16
  %18 = getelementptr inbounds i32, ptr %0, i64 %17
  br label %19

19:                                               ; preds = %.lr.ph, %53
  %indvars.iv65 = phi i64 [ 0, %.lr.ph ], [ %indvars.iv.next66, %53 ]
  %indvars.iv63 = phi i64 [ 8, %.lr.ph ], [ %indvars.iv.next64, %53 ]
  call void @llvm.lifetime.start.p0(i64 16, ptr nonnull %7) #8
  %20 = getelementptr inbounds nuw i32, ptr %18, i64 %indvars.iv65
  %21 = load <2 x i64>, ptr %20, align 1, !tbaa !7
  %22 = or disjoint i64 %indvars.iv65, 4
  %23 = getelementptr inbounds nuw i32, ptr %18, i64 %22
  %24 = load <2 x i64>, ptr %23, align 1, !tbaa !7
  %25 = bitcast <2 x i64> %21 to <4 x i32>
  %26 = lshr <4 x i32> %25, splat (i32 16)
  %27 = bitcast <2 x i64> %24 to <4 x i32>
  %28 = lshr <4 x i32> %27, splat (i32 16)
  %29 = bitcast <2 x i64> %21 to <8 x i16>
  %30 = and <8 x i16> %29, <i16 -256, i16 0, i16 -256, i16 0, i16 -256, i16 0, i16 -256, i16 0>
  %31 = tail call <8 x i16> @llvm.x86.sse2.pmulh.w(<8 x i16> %30, <8 x i16> %14)
  %32 = bitcast <2 x i64> %24 to <8 x i16>
  %33 = and <8 x i16> %32, <i16 -256, i16 0, i16 -256, i16 0, i16 -256, i16 0, i16 -256, i16 0>
  %34 = tail call <8 x i16> @llvm.x86.sse2.pmulh.w(<8 x i16> %33, <8 x i16> %14)
  %35 = bitcast <4 x i32> %26 to <16 x i8>
  %36 = bitcast <8 x i16> %31 to <16 x i8>
  %37 = sub <16 x i8> %35, %36
  %38 = bitcast <4 x i32> %28 to <16 x i8>
  %39 = bitcast <8 x i16> %34 to <16 x i8>
  %40 = sub <16 x i8> %38, %39
  %41 = bitcast <16 x i8> %37 to <4 x i32>
  %42 = and <4 x i32> %41, splat (i32 255)
  %43 = bitcast <16 x i8> %40 to <4 x i32>
  %44 = and <4 x i32> %43, splat (i32 255)
  %45 = tail call <8 x i16> @llvm.x86.sse2.packssdw.128(<4 x i32> %42, <4 x i32> %44)
  store <8 x i16> %45, ptr %7, align 16, !tbaa !7
  br label %46

46:                                               ; preds = %19, %46
  %indvars.iv = phi i64 [ 0, %19 ], [ %indvars.iv.next, %46 ]
  %47 = getelementptr inbounds nuw [8 x i16], ptr %7, i64 0, i64 %indvars.iv
  %48 = load i16, ptr %47, align 2, !tbaa !15
  %49 = zext i16 %48 to i64
  %50 = getelementptr inbounds nuw i32, ptr %5, i64 %49
  %51 = load i32, ptr %50, align 4, !tbaa !17
  %52 = add i32 %51, 1
  store i32 %52, ptr %50, align 4, !tbaa !17
  %indvars.iv.next = add nuw nsw i64 %indvars.iv, 1
  %exitcond.not = icmp eq i64 %indvars.iv.next, 8
  br i1 %exitcond.not, label %53, label %46, !llvm.loop !22

53:                                               ; preds = %46
  call void @llvm.lifetime.end.p0(i64 16, ptr nonnull %7) #8
  %indvars.iv.next64 = add nuw nsw i64 %indvars.iv63, 8
  %.not53 = icmp samesign ugt i64 %indvars.iv.next64, %15
  %indvars.iv.next66 = add nuw nsw i64 %indvars.iv65, 8
  br i1 %.not53, label %._crit_edge, label %19, !llvm.loop !23

._crit_edge:                                      ; preds = %53
  %indvars.iv.next71 = add nuw nsw i64 %indvars.iv70, 1
  %exitcond73.not = icmp eq i64 %indvars.iv.next71, %wide.trip.count
  br i1 %exitcond73.not, label %._crit_edge60, label %.lr.ph, !llvm.loop !24

._crit_edge60:                                    ; preds = %._crit_edge, %.lr.ph59, %6
  %54 = and i32 %2, 7
  %.not = icmp eq i32 %54, 0
  br i1 %.not, label %61, label %55

55:                                               ; preds = %._crit_edge60
  %56 = sext i32 %2 to i64
  %57 = getelementptr inbounds i32, ptr %0, i64 %56
  %58 = zext nneg i32 %54 to i64
  %59 = sub nsw i64 0, %58
  %60 = getelementptr inbounds i32, ptr %57, i64 %59
  tail call void @VP8LCollectColorRedTransforms_C(ptr noundef nonnull %60, i32 noundef %1, i32 noundef %54, i32 noundef %3, i32 noundef %4, ptr noundef %5) #8
  br label %61

61:                                               ; preds = %55, %._crit_edge60
  ret void
}